target datalayout = "e-m:e-p270:32:32-p271:32:32-p272:64:64-i64:64-f80:128-n8:16:32:64-S128"
target triple = "x86_64-pc-linux-gnu"

@.str = private unnamed_addr constant [3 x i8] c"%d\00", align 1
@.str.1 = private unnamed_addr constant [3 x i8] c"%s\00", align 1
@.str.2 = private unnamed_addr constant [4 x i8] c"%d\0A\00", align 1

; Function Attrs: noinline nounwind uwtable
define dso_local i32 @main() #0 {
  %1 = alloca i32, align 4
  %2 = alloca [105 x [105 x i8]], align 16
  %3 = alloca [105 x [105 x i32]], align 16
  %4 = alloca i32, align 4
  %5 = alloca i32, align 4
  %6 = alloca i32, align 4
  %7 = alloca i32, align 4
  %8 = alloca i32, align 4
  %9 = alloca i32, align 4
  %10 = alloca i32, align 4
  %11 = alloca i32, align 4
  %12 = alloca i32, align 4
  %13 = alloca i32, align 4
  store i32 0, i32* %1, align 4
  %14 = bitcast [105 x [105 x i32]]* %3 to i8*
  call void @llvm.memset.p0i8.i64(i8* align 16 %14, i8 0, i64 44100, i1 false)
  %15 = call i32 (i8*, ...) @__isoc99_scanf(i8* getelementptr inbounds ([3 x i8], [3 x i8]* @.str, i64 0, i64 0), i32* %5)
  store i32 1, i32* %6, align 4
  br label %16

16:                                               ; preds = %71, %0
  %17 = load i32, i32* %6, align 4
  %18 = load i32, i32* %5, align 4
  %19 = icmp sle i32 %17, %18
  br i1 %19, label %20, label %74

20:                                               ; preds = %16
  %21 = load i32, i32* %6, align 4
  %22 = sext i32 %21 to i64
  %23 = getelementptr inbounds [105 x [105 x i8]], [105 x [105 x i8]]* %2, i64 0, i64 %22
  %24 = getelementptr inbounds [105 x i8], [105 x i8]* %23, i64 0, i64 0
  %25 = call i32 (i8*, ...) @__isoc99_scanf(i8* getelementptr inbounds ([3 x i8], [3 x i8]* @.str.1, i64 0, i64 0), i8* %24)
  store i32 0, i32* %7, align 4
  br label %26

26:                                               ; preds = %67, %20
  %27 = load i32, i32* %7, align 4
  %28 = load i32, i32* %5, align 4
  %29 = icmp slt i32 %27, %28
  br i1 %29, label %30, label %70

30:                                               ; preds = %26
  %31 = load i32, i32* %6, align 4
  %32 = sext i32 %31 to i64
  %33 = getelementptr inbounds [105 x [105 x i8]], [105 x [105 x i8]]* %2, i64 0, i64 %32
  %34 = load i32, i32* %7, align 4
  %35 = sext i32 %34 to i64
  %36 = getelementptr inbounds [105 x i8], [105 x i8]* %33, i64 0, i64 %35
  %37 = load i8, i8* %36, align 1
  %38 = sext i8 %37 to i32
  %39 = icmp eq i32 %38, 64
  br i1 %39, label %40, label %48

40:                                               ; preds = %30
  %41 = load i32, i32* %6, align 4
  %42 = sext i32 %41 to i64
  %43 = getelementptr inbounds [105 x [105 x i32]], [105 x [105 x i32]]* %3, i64 0, i64 %42
  %44 = load i32, i32* %7, align 4
  %45 = add nsw i32 %44, 1
  %46 = sext i32 %45 to i64
  %47 = getelementptr inbounds [105 x i32], [105 x i32]* %43, i64 0, i64 %46
  store i32 1, i32* %47, align 4
  br label %48

48:                                               ; preds = %40, %30
  %49 = load i32, i32* %6, align 4
  %50 = sext i32 %49 to i64
  %51 = getelementptr inbounds [105 x [105 x i8]], [105 x [105 x i8]]* %2, i64 0, i64 %50
  %52 = load i32, i32* %7, align 4
  %53 = sext i32 %52 to i64
  %54 = getelementptr inbounds [105 x i8], [105 x i8]* %51, i64 0, i64 %53
  %55 = load i8, i8* %54, align 1
  %56 = sext i8 %55 to i32
  %57 = icmp eq i32 %56, 35
  br i1 %57, label %58, label %66

58:                                               ; preds = %48
  %59 = load i32, i32* %6, align 4
  %60 = sext i32 %59 to i64
  %61 = getelementptr inbounds [105 x [105 x i32]], [105 x [105 x i32]]* %3, i64 0, i64 %60
  %62 = load i32, i32* %7, align 4
  %63 = add nsw i32 %62, 1
  %64 = sext i32 %63 to i64
  %65 = getelementptr inbounds [105 x i32], [105 x i32]* %61, i64 0, i64 %64
  store i32 -1, i32* %65, align 4
  br label %66

66:                                               ; preds = %58, %48
  br label %67

67:                                               ; preds = %66
  %68 = load i32, i32* %7, align 4
  %69 = add nsw i32 %68, 1
  store i32 %69, i32* %7, align 4
  br label %26

70:                                               ; preds = %26
  br label %71

71:                                               ; preds = %70
  %72 = load i32, i32* %6, align 4
  %73 = add nsw i32 %72, 1
  store i32 %73, i32* %6, align 4
  br label %16

74:                                               ; preds = %16
  %75 = call i32 (i8*, ...) @__isoc99_scanf(i8* getelementptr inbounds ([3 x i8], [3 x i8]* @.str, i64 0, i64 0), i32* %4)
  store i32 1, i32* %8, align 4
  br label %76

76:                                               ; preds = %209, %74
  %77 = load i32, i32* %8, align 4
  %78 = load i32, i32* %4, align 4
  %79 = icmp slt i32 %77, %78
  br i1 %79, label %80, label %212

80:                                               ; preds = %76
  store i32 1, i32* %9, align 4
  br label %81

81:                                               ; preds = %205, %80
  %82 = load i32, i32* %9, align 4
  %83 = load i32, i32* %5, align 4
  %84 = icmp sle i32 %82, %83
  br i1 %84, label %85, label %208

85:                                               ; preds = %81
  store i32 1, i32* %10, align 4
  br label %86

86:                                               ; preds = %201, %85
  %87 = load i32, i32* %10, align 4
  %88 = load i32, i32* %5, align 4
  %89 = icmp sle i32 %87, %88
  br i1 %89, label %90, label %204

90:                                               ; preds = %86
  %91 = load i32, i32* %9, align 4
  %92 = sext i32 %91 to i64
  %93 = getelementptr inbounds [105 x [105 x i32]], [105 x [105 x i32]]* %3, i64 0, i64 %92
  %94 = load i32, i32* %10, align 4
  %95 = sext i32 %94 to i64
  %96 = getelementptr inbounds [105 x i32], [105 x i32]* %93, i64 0, i64 %95
  %97 = load i32, i32* %96, align 4
  %98 = load i32, i32* %8, align 4
  %99 = add nsw i32 %98, 1
  %100 = icmp ne i32 %97, %99
  br i1 %100, label %101, label %200

101:                                              ; preds = %90
  %102 = load i32, i32* %9, align 4
  %103 = sext i32 %102 to i64
  %104 = getelementptr inbounds [105 x [105 x i32]], [105 x [105 x i32]]* %3, i64 0, i64 %103
  %105 = load i32, i32* %10, align 4
  %106 = sext i32 %105 to i64
  %107 = getelementptr inbounds [105 x i32], [105 x i32]* %104, i64 0, i64 %106
  %108 = load i32, i32* %107, align 4
  %109 = icmp ne i32 %108, -1
  br i1 %109, label %110, label %200

110:                                              ; preds = %101
  %111 = load i32, i32* %9, align 4
  %112 = sext i32 %111 to i64
  %113 = getelementptr inbounds [105 x [105 x i32]], [105 x [105 x i32]]* %3, i64 0, i64 %112
  %114 = load i32, i32* %10, align 4
  %115 = sext i32 %114 to i64
  %116 = getelementptr inbounds [105 x i32], [105 x i32]* %113, i64 0, i64 %115
  %117 = load i32, i32* %116, align 4
  %118 = icmp ne i32 %117, 0
  br i1 %118, label %119, label %200

119:                                              ; preds = %110
  %120 = load i32, i32* %9, align 4
  %121 = sub nsw i32 %120, 1
  %122 = sext i32 %121 to i64
  %123 = getelementptr inbounds [105 x [105 x i32]], [105 x [105 x i32]]* %3, i64 0, i64 %122
  %124 = load i32, i32* %10, align 4
  %125 = sext i32 %124 to i64
  %126 = getelementptr inbounds [105 x i32], [105 x i32]* %123, i64 0, i64 %125
  %127 = load i32, i32* %126, align 4
  %128 = icmp eq i32 %127, 0
  br i1 %128, label %129, label %139

129:                                              ; preds = %119
  %130 = load i32, i32* %8, align 4
  %131 = add nsw i32 %130, 1
  %132 = load i32, i32* %9, align 4
  %133 = sub nsw i32 %132, 1
  %134 = sext i32 %133 to i64
  %135 = getelementptr inbounds [105 x [105 x i32]], [105 x [105 x i32]]* %3, i64 0, i64 %134
  %136 = load i32, i32* %10, align 4
  %137 = sext i32 %136 to i64
  %138 = getelementptr inbounds [105 x i32], [105 x i32]* %135, i64 0, i64 %137
  store i32 %131, i32* %138, align 4
  br label %139

139:                                              ; preds = %129, %119
  %140 = load i32, i32* %9, align 4
  %141 = sext i32 %140 to i64
  %142 = getelementptr inbounds [105 x [105 x i32]], [105 x [105 x i32]]* %3, i64 0, i64 %141
  %143 = load i32, i32* %10, align 4
  %144 = add nsw i32 %143, 1
  %145 = sext i32 %144 to i64
  %146 = getelementptr inbounds [105 x i32], [105 x i32]* %142, i64 0, i64 %145
  %147 = load i32, i32* %146, align 4
  %148 = icmp eq i32 %147, 0
  br i1 %148, label %149, label %159

149:                                              ; preds = %139
  %150 = load i32, i32* %8, align 4
  %151 = add nsw i32 %150, 1
  %152 = load i32, i32* %9, align 4
  %153 = sext i32 %152 to i64
  %154 = getelementptr inbounds [105 x [105 x i32]], [105 x [105 x i32]]* %3, i64 0, i64 %153
  %155 = load i32, i32* %10, align 4
  %156 = add nsw i32 %155, 1
  %157 = sext i32 %156 to i64
  %158 = getelementptr inbounds [105 x i32], [105 x i32]* %154, i64 0, i64 %157
  store i32 %151, i32* %158, align 4
  br label %159

159:                                              ; preds = %149, %139
  %160 = load i32, i32* %9, align 4
  %161 = add nsw i32 %160, 1
  %162 = sext i32 %161 to i64
  %163 = getelementptr inbounds [105 x [105 x i32]], [105 x [105 x i32]]* %3, i64 0, i64 %162
  %164 = load i32, i32* %10, align 4
  %165 = sext i32 %164 to i64
  %166 = getelementptr inbounds [105 x i32], [105 x i32]* %163, i64 0, i64 %165
  %167 = load i32, i32* %166, align 4
  %168 = icmp eq i32 %167, 0
  br i1 %168, label %169, label %179

169:                                              ; preds = %159
  %170 = load i32, i32* %8, align 4
  %171 = add nsw i32 %170, 1
  %172 = load i32, i32* %9, align 4
  %173 = add nsw i32 %172, 1
  %174 = sext i32 %173 to i64
  %175 = getelementptr inbounds [105 x [105 x i32]], [105 x [105 x i32]]* %3, i64 0, i64 %174
  %176 = load i32, i32* %10, align 4
  %177 = sext i32 %176 to i64
  %178 = getelementptr inbounds [105 x i32], [105 x i32]* %175, i64 0, i64 %177
  store i32 %171, i32* %178, align 4
  br label %179

179:                                              ; preds = %169, %159
  %180 = load i32, i32* %9, align 4
  %181 = sext i32 %180 to i64
  %182 = getelementptr inbounds [105 x [105 x i32]], [105 x [105 x i32]]* %3, i64 0, i64 %181
  %183 = load i32, i32* %10, align 4
  %184 = sub nsw i32 %183, 1
  %185 = sext i32 %184 to i64
  %186 = getelementptr inbounds [105 x i32], [105 x i32]* %182, i64 0, i64 %185
  %187 = load i32, i32* %186, align 4
  %188 = icmp eq i32 %187, 0
  br i1 %188, label %189, label %199

189:                                              ; preds = %179
  %190 = load i32, i32* %8, align 4
  %191 = add nsw i32 %190, 1
  %192 = load i32, i32* %9, align 4
  %193 = sext i32 %192 to i64
  %194 = getelementptr inbounds [105 x [105 x i32]], [105 x [105 x i32]]* %3, i64 0, i64 %193
  %195 = load i32, i32* %10, align 4
  %196 = sub nsw i32 %195, 1
  %197 = sext i32 %196 to i64
  %198 = getelementptr inbounds [105 x i32], [105 x i32]* %194, i64 0, i64 %197
  store i32 %191, i32* %198, align 4
  br label %199

199:                                              ; preds = %189, %179
  br label %200

200:                                              ; preds = %199, %110, %101, %90
  br label %201

201:                                              ; preds = %200
  %202 = load i32, i32* %10, align 4
  %203 = add nsw i32 %202, 1
  store i32 %203, i32* %10, align 4
  br label %86

204:                                              ; preds = %86
  br label %205

205:                                              ; preds = %204
  %206 = load i32, i32* %9, align 4
  %207 = add nsw i32 %206, 1
  store i32 %207, i32* %9, align 4
  br label %81

208:                                              ; preds = %81
  br label %209

209:                                              ; preds = %208
  %210 = load i32, i32* %8, align 4
  %211 = add nsw i32 %210, 1
  store i32 %211, i32* %8, align 4
  br label %76

212:                                              ; preds = %76
  store i32 0, i32* %11, align 4
  store i32 1, i32* %12, align 4
  br label %213

213:                                              ; preds = %239, %212
  %214 = load i32, i32* %12, align 4
  %215 = load i32, i32* %5, align 4
  %216 = icmp sle i32 %214, %215
  br i1 %216, label %217, label %242

217:                                              ; preds = %213
  store i32 1, i32* %13, align 4
  br label %218

218:                                              ; preds = %235, %217
  %219 = load i32, i32* %13, align 4
  %220 = load i32, i32* %5, align 4
  %221 = icmp sle i32 %219, %220
  br i1 %221, label %222, label %238

222:                                              ; preds = %218
  %223 = load i32, i32* %12, align 4
  %224 = sext i32 %223 to i64
  %225 = getelementptr inbounds [105 x [105 x i32]], [105 x [105 x i32]]* %3, i64 0, i64 %224
  %226 = load i32, i32* %13, align 4
  %227 = sext i32 %226 to i64
  %228 = getelementptr inbounds [105 x i32], [105 x i32]* %225, i64 0, i64 %227
  %229 = load i32, i32* %228, align 4
  %230 = icmp sgt i32 %229, 0
  br i1 %230, label %231, label %234

231:                                              ; preds = %222
  %232 = load i32, i32* %11, align 4
  %233 = add nsw i32 %232, 1
  store i32 %233, i32* %11, align 4
  br label %234

234:                                              ; preds = %231, %222
  br label %235

235:                                              ; preds = %234
  %236 = load i32, i32* %13, align 4
  %237 = add nsw i32 %236, 1
  store i32 %237, i32* %13, align 4
  br label %218

238:                                              ; preds = %218
  br label %239

239:                                              ; preds = %238
  %240 = load i32, i32* %12, align 4
  %241 = add nsw i32 %240, 1
  store i32 %241, i32* %12, align 4
  br label %213

242:                                              ; preds = %213
  %243 = load i32, i32* %11, align 4
  %244 = call i32 (i8*, ...) @printf(i8* getelementptr inbounds ([4 x i8], [4 x i8]* @.str.2, i64 0, i64 0), i32 %243)
  ret i32 0
}